target datalayout = "e-m:e-p270:32:32-p271:32:32-p272:64:64-i64:64-i128:128-f80:128-n8:16:32:64-S128"
target triple = "x86_64-pc-linux-gnu"

%"class.Imf_3_4::CompressedIDManifest" = type { i32, i64, ptr }

; Function Attrs: mustprogress nounwind uwtable
define void @_ZN7Imf_3_420CompressedIDManifestC2ERKS0_(ptr noundef nonnull align 8 dereferenceable(24) %0, ptr noundef nonnull align 8 dereferenceable(24) %1) unnamed_addr #5 align 2 {
  %3 = alloca ptr, align 8
  %4 = alloca ptr, align 8
  store ptr %0, ptr %3, align 8, !tbaa !105
  store ptr %1, ptr %4, align 8, !tbaa !105
  %5 = load ptr, ptr %3, align 8
  %6 = getelementptr inbounds nuw %"class.Imf_3_4::CompressedIDManifest", ptr %5, i32 0, i32 0
  %7 = load ptr, ptr %4, align 8, !tbaa !105
  %8 = getelementptr inbounds nuw %"class.Imf_3_4::CompressedIDManifest", ptr %7, i32 0, i32 0
  %9 = load i32, ptr %8, align 8, !tbaa !109
  store i32 %9, ptr %6, align 8, !tbaa !109
  %10 = getelementptr inbounds nuw %"class.Imf_3_4::CompressedIDManifest", ptr %5, i32 0, i32 1
  %11 = load ptr, ptr %4, align 8, !tbaa !105
  %12 = getelementptr inbounds nuw %"class.Imf_3_4::CompressedIDManifest", ptr %11, i32 0, i32 1
  %13 = load i64, ptr %12, align 8, !tbaa !107
  store i64 %13, ptr %10, align 8, !tbaa !107
  %14 = getelementptr inbounds nuw %"class.Imf_3_4::CompressedIDManifest", ptr %5, i32 0, i32 2
  %15 = load ptr, ptr %4, align 8, !tbaa !105
  %16 = getelementptr inbounds nuw %"class.Imf_3_4::CompressedIDManifest", ptr %15, i32 0, i32 0
  %17 = load i32, ptr %16, align 8, !tbaa !109
  %18 = sext i32 %17 to i64
  %19 = call noalias ptr @malloc(i64 noundef %18) #24
  store ptr %19, ptr %14, align 8, !tbaa !110
  %20 = getelementptr inbounds nuw %"class.Imf_3_4::CompressedIDManifest", ptr %5, i32 0, i32 2
  %21 = load ptr, ptr %20, align 8, !tbaa !110
  %22 = load ptr, ptr %4, align 8, !tbaa !105
  %23 = getelementptr inbounds nuw %"class.Imf_3_4::CompressedIDManifest", ptr %22, i32 0, i32 2
  %24 = load ptr, ptr %23, align 8, !tbaa !110
  %25 = getelementptr inbounds nuw %"class.Imf_3_4::CompressedIDManifest", ptr %5, i32 0, i32 0
  %26 = load i32, ptr %25, align 8, !tbaa !109
  %27 = sext i32 %26 to i64
  call void @llvm.memcpy.p0.p0.i64(ptr align 1 %21, ptr align 1 %24, i64 %27, i1 false)
  ret void
}