; Function Attrs: mustprogress nofree nounwind willreturn uwtable
define void @_ZN7Imf_3_420CompressedIDManifestC2ERKS0_(ptr noundef nonnull writeonly align 8 captures(none) dereferenceable(24) initializes((0, 4), (8, 24)) %0, ptr noundef nonnull readonly align 8 captures(none) dereferenceable(24) %1) unnamed_addr #14 align 2 {
  %3 = load i32, ptr %1, align 8, !tbaa !104
  store i32 %3, ptr %0, align 8, !tbaa !104
  %4 = getelementptr inbounds nuw i8, ptr %0, i64 8
  %5 = getelementptr inbounds nuw i8, ptr %1, i64 8
  %6 = load i64, ptr %5, align 8, !tbaa !102
  store i64 %6, ptr %4, align 8, !tbaa !102
  %7 = getelementptr inbounds nuw i8, ptr %0, i64 16
  %8 = sext i32 %3 to i64
  %9 = tail call noalias ptr @malloc(i64 noundef %8) #40
  store ptr %9, ptr %7, align 8, !tbaa !105
  %10 = getelementptr inbounds nuw i8, ptr %1, i64 16
  %11 = load ptr, ptr %10, align 8, !tbaa !105
  tail call void @llvm.memcpy.p0.p0.i64(ptr align 1 %9, ptr align 1 %11, i64 %8, i1 false)
  ret void
}